; Function Attrs: mustprogress nofree norecurse nosync nounwind memory(readwrite, inaccessiblemem: none) uwtable
define void @_ZNK3gmx16ScaleCoordinates4Impl24inverseIgnoringZeroScaleENS_8ArrayRefINS_11BasicVectorIfEEEE(ptr nocapture noundef nonnull readonly align 4 dereferenceable(12) %0, ptr %1, ptr readnone %2) local_unnamed_addr #2 align 2 {
  %4 = alloca %"class.gmx::BasicVector", align 8
  br label %8

.preheader:                                       ; preds = %8
  %.not16 = icmp eq ptr %1, %2
  br i1 %.not16, label %._crit_edge, label %.lr.ph

.lr.ph:                                           ; preds = %.preheader
  %5 = load <2 x float>, ptr %4, align 8
  %6 = getelementptr inbounds i8, ptr %4, i64 8
  %7 = load float, ptr %6, align 8
  br label %15

8:                                                ; preds = %3, %8
  %indvars.iv = phi i64 [ 0, %3 ], [ %indvars.iv.next, %8 ]
  %9 = getelementptr inbounds [3 x float], ptr %0, i64 0, i64 %indvars.iv
  %10 = load float, ptr %9, align 4
  %11 = fcmp une float %10, 0.000000e+00
  %12 = fdiv float 1.000000e+00, %10
  %13 = select i1 %11, float %12, float 1.000000e+00
  %14 = getelementptr inbounds [3 x float], ptr %4, i64 0, i64 %indvars.iv
  store float %13, ptr %14, align 4
  %indvars.iv.next = add nuw nsw i64 %indvars.iv, 1
  %exitcond.not = icmp eq i64 %indvars.iv.next, 3
  br i1 %exitcond.not, label %.preheader, label %8, !llvm.loop !5

15:                                               ; preds = %.lr.ph, %15
  %.sroa.0.017 = phi ptr [ %1, %.lr.ph ], [ %21, %15 ]
  %16 = load <2 x float>, ptr %.sroa.0.017, align 4
  %17 = fmul <2 x float> %5, %16
  store <2 x float> %17, ptr %.sroa.0.017, align 4
  %18 = getelementptr inbounds i8, ptr %.sroa.0.017, i64 8
  %19 = load float, ptr %18, align 4
  %20 = fmul float %7, %19
  store float %20, ptr %18, align 4
  %21 = getelementptr inbounds i8, ptr %.sroa.0.017, i64 12
  %.not = icmp eq ptr %21, %2
  br i1 %.not, label %._crit_edge, label %15

._crit_edge:                                      ; preds = %15, %.preheader
  ret void
}